target datalayout = "e-m:e-p270:32:32-p271:32:32-p272:64:64-i64:64-i128:128-f80:128-n8:16:32:64-S128"
target triple = "x86_64-pc-linux-gnu"

%struct.ossl_param_st = type { ptr, i32, ptr, i64, i64 }
%struct.TEST_ENCAPDATA = type { ptr, ptr, i64, ptr, i64, ptr, i64, ptr, i64, ptr, i64, ptr, i64, ptr, i64 }

@opparam = internal global [2 x %struct.ossl_param_st] zeroinitializer, align 16
@.str.3 = private unnamed_addr constant [38 x i8] c"../openssl/test/evp_pkey_dhkem_test.c\00", align 1
@rctx = internal global [2 x ptr] zeroinitializer, align 16
@.str.92 = private unnamed_addr constant [6 x i8] c"%s %s\00", align 1
@.str.93 = private unnamed_addr constant [6 x i8] c"Encap\00", align 1
@.str.94 = private unnamed_addr constant [6 x i8] c"Decap\00", align 1
@.str.97 = private unnamed_addr constant [9 x i8] c"expected\00", align 1
@.str.98 = private unnamed_addr constant [32 x i8] c"ERR_GET_REASON(ERR_get_error())\00", align 1
@.str.99 = private unnamed_addr constant [24 x i8] c"PROV_R_NOT_A_PUBLIC_KEY\00", align 1
@.str.100 = private unnamed_addr constant [76 x i8] c"auth = new_raw_private_key(t->curve, t->rpriv, t->rprivlen, NULL, expected)\00", align 1
@.str.101 = private unnamed_addr constant [51 x i8] c"EVP_PKEY_auth_encapsulate_init(ctx, auth, opparam)\00", align 1
@.str.102 = private unnamed_addr constant [51 x i8] c"EVP_PKEY_auth_decapsulate_init(ctx, auth, opparam)\00", align 1

; Function Attrs: inlinehint nounwind uwtable
define internal i32 @ERR_GET_REASON(i64 noundef %0) #5 {
  %2 = alloca i32, align 4
  %3 = alloca i64, align 8
  store i64 %0, ptr %3, align 8, !tbaa !13
  %4 = load i64, ptr %3, align 8, !tbaa !13
  %5 = and i64 %4, 2147483648
  %6 = icmp ne i64 %5, 0
  br i1 %6, label %7, label %11

7:                                                ; preds = %1
  %8 = load i64, ptr %3, align 8, !tbaa !13
  %9 = and i64 %8, 2147483647
  %10 = trunc i64 %9 to i32
  store i32 %10, ptr %2, align 4
  br label %15

11:                                               ; preds = %1
  %12 = load i64, ptr %3, align 8, !tbaa !13
  %13 = and i64 %12, 8388607
  %14 = trunc i64 %13 to i32
  store i32 %14, ptr %2, align 4
  br label %15

15:                                               ; preds = %11, %7
  %16 = load i32, ptr %2, align 4
  ret i32 %16
}

; Function Attrs: nounwind uwtable
define internal i32 @test_noauthpublic(i32 noundef %0) #0 {
  %2 = alloca i32, align 4
  %3 = alloca i32, align 4
  %4 = alloca ptr, align 8
  %5 = alloca i32, align 4
  %6 = alloca i32, align 4
  %7 = alloca ptr, align 8
  %8 = alloca ptr, align 8
  %9 = alloca i32, align 4
  store i32 %0, ptr %2, align 4, !tbaa !10
  call void @llvm.lifetime.start.p0(i64 4, ptr %3) #6
  store i32 0, ptr %3, align 4, !tbaa !10
  call void @llvm.lifetime.start.p0(i64 8, ptr %4) #6
  store ptr null, ptr %4, align 8, !tbaa !17
  call void @llvm.lifetime.start.p0(i64 4, ptr %5) #6
  %10 = load i32, ptr %2, align 4, !tbaa !10
  %11 = and i32 %10, 1
  %12 = icmp eq i32 %11, 0
  %13 = zext i1 %12 to i32
  store i32 %13, ptr %5, align 4, !tbaa !10
  call void @llvm.lifetime.start.p0(i64 4, ptr %6) #6
  %14 = load i32, ptr %2, align 4, !tbaa !10
  %15 = icmp sge i32 %14, 2
  %16 = zext i1 %15 to i32
  store i32 %16, ptr %6, align 4, !tbaa !10
  call void @llvm.lifetime.start.p0(i64 8, ptr %7) #6
  %17 = load i32, ptr %6, align 4, !tbaa !10
  %18 = sext i32 %17 to i64
  %19 = getelementptr inbounds [5 x %struct.TEST_ENCAPDATA], ptr @ec_encapdata, i64 0, i64 %18
  store ptr %19, ptr %7, align 8, !tbaa !12
  call void @llvm.lifetime.start.p0(i64 8, ptr %8) #6
  %20 = load i32, ptr %6, align 4, !tbaa !10
  %21 = sext i32 %20 to i64
  %22 = getelementptr inbounds [2 x ptr], ptr @rctx, i64 0, i64 %21
  %23 = load ptr, ptr %22, align 8, !tbaa !19
  store ptr %23, ptr %8, align 8, !tbaa !19
  call void @llvm.lifetime.start.p0(i64 4, ptr %9) #6
  %24 = load i32, ptr %6, align 4, !tbaa !10
  %25 = icmp eq i32 %24, 1
  %26 = zext i1 %25 to i32
  store i32 %26, ptr %9, align 4, !tbaa !10
  %27 = load ptr, ptr %7, align 8, !tbaa !12
  %28 = getelementptr inbounds nuw %struct.TEST_ENCAPDATA, ptr %27, i32 0, i32 0
  %29 = load ptr, ptr %28, align 8, !tbaa !21
  %30 = load i32, ptr %5, align 4, !tbaa !10
  %31 = icmp ne i32 %30, 0
  %32 = select i1 %31, ptr @.str.93, ptr @.str.94
  call void (ptr, ...) @test_note(ptr noundef @.str.92, ptr noundef %29, ptr noundef %32)
  %33 = load ptr, ptr %7, align 8, !tbaa !12
  %34 = getelementptr inbounds nuw %struct.TEST_ENCAPDATA, ptr %33, i32 0, i32 0
  %35 = load ptr, ptr %34, align 8, !tbaa !21
  %36 = load ptr, ptr %7, align 8, !tbaa !12
  %37 = getelementptr inbounds nuw %struct.TEST_ENCAPDATA, ptr %36, i32 0, i32 5
  %38 = load ptr, ptr %37, align 8, !tbaa !29
  %39 = load ptr, ptr %7, align 8, !tbaa !12
  %40 = getelementptr inbounds nuw %struct.TEST_ENCAPDATA, ptr %39, i32 0, i32 6
  %41 = load i64, ptr %40, align 8, !tbaa !30
  %42 = load i32, ptr %9, align 4, !tbaa !10
  %43 = sext i32 %42 to i64
  %44 = call ptr @new_raw_private_key(ptr noundef %35, ptr noundef %38, i64 noundef %41, ptr noundef null, i64 noundef %43)
  store ptr %44, ptr %4, align 8, !tbaa !17
  %45 = call i32 @test_ptr(ptr noundef @.str.3, i32 noundef 440, ptr noundef @.str.100, ptr noundef %44)
  %46 = icmp ne i32 %45, 0
  br i1 %46, label %48, label %47

47:                                               ; preds = %1
  br label %79

48:                                               ; preds = %1
  %49 = load i32, ptr %5, align 4, !tbaa !10
  %50 = icmp ne i32 %49, 0
  br i1 %50, label %51, label %60

51:                                               ; preds = %48
  %52 = load ptr, ptr %8, align 8, !tbaa !19
  %53 = load ptr, ptr %4, align 8, !tbaa !17
  %54 = call i32 @EVP_PKEY_auth_encapsulate_init(ptr noundef %52, ptr noundef %53, ptr noundef @opparam)
  %55 = load i32, ptr %9, align 4, !tbaa !10
  %56 = call i32 @test_int_eq(ptr noundef @.str.3, i32 noundef 445, ptr noundef @.str.101, ptr noundef @.str.97, i32 noundef %54, i32 noundef %55)
  %57 = icmp ne i32 %56, 0
  br i1 %57, label %59, label %58

58:                                               ; preds = %51
  br label %79

59:                                               ; preds = %51
  br label %69

60:                                               ; preds = %48
  %61 = load ptr, ptr %8, align 8, !tbaa !19
  %62 = load ptr, ptr %4, align 8, !tbaa !17
  %63 = call i32 @EVP_PKEY_auth_decapsulate_init(ptr noundef %61, ptr noundef %62, ptr noundef @opparam)
  %64 = load i32, ptr %9, align 4, !tbaa !10
  %65 = call i32 @test_int_eq(ptr noundef @.str.3, i32 noundef 449, ptr noundef @.str.102, ptr noundef @.str.97, i32 noundef %63, i32 noundef %64)
  %66 = icmp ne i32 %65, 0
  br i1 %66, label %68, label %67

67:                                               ; preds = %60
  br label %79

68:                                               ; preds = %60
  br label %69

69:                                               ; preds = %68, %59
  %70 = load i32, ptr %9, align 4, !tbaa !10
  %71 = icmp eq i32 %70, 0
  br i1 %71, label %72, label %78

72:                                               ; preds = %69
  %73 = call i64 @ERR_get_error()
  %74 = call i32 @ERR_GET_REASON(i64 noundef %73)
  %75 = call i32 @test_int_eq(ptr noundef @.str.3, i32 noundef 454, ptr noundef @.str.98, ptr noundef @.str.99, i32 noundef %74, i32 noundef 220)
  %76 = icmp ne i32 %75, 0
  br i1 %76, label %78, label %77

77:                                               ; preds = %72
  br label %79

78:                                               ; preds = %72, %69
  store i32 1, ptr %3, align 4, !tbaa !10
  br label %79

79:                                               ; preds = %78, %77, %67, %58, %47
  %80 = load ptr, ptr %4, align 8, !tbaa !17
  call void @EVP_PKEY_free(ptr noundef %80)
  %81 = load i32, ptr %3, align 4, !tbaa !10
  call void @llvm.lifetime.end.p0(i64 4, ptr %9) #6
  call void @llvm.lifetime.end.p0(i64 8, ptr %8) #6
  call void @llvm.lifetime.end.p0(i64 8, ptr %7) #6
  call void @llvm.lifetime.end.p0(i64 4, ptr %6) #6
  call void @llvm.lifetime.end.p0(i64 4, ptr %5) #6
  call void @llvm.lifetime.end.p0(i64 8, ptr %4) #6
  call void @llvm.lifetime.end.p0(i64 4, ptr %3) #6
  ret i32 %81
}