; Function Attrs: nounwind uwtable
define internal range(i32 0, 2) i32 @test_noauthpublic(i32 noundef %0) #0 {
  %2 = and i32 %0, 1
  %3 = icmp eq i32 %2, 0
  %4 = icmp sgt i32 %0, 1
  %5 = zext i1 %4 to i32
  %6 = zext i1 %4 to i64
  %7 = getelementptr inbounds nuw [5 x %struct.TEST_ENCAPDATA], ptr @ec_encapdata, i64 0, i64 %6
  %8 = getelementptr inbounds nuw [2 x ptr], ptr @rctx, i64 0, i64 %6
  %9 = load ptr, ptr %8, align 8, !tbaa !19
  %10 = load ptr, ptr %7, align 8, !tbaa !21
  %11 = select i1 %3, ptr @.str.93, ptr @.str.94
  tail call void (ptr, ...) @test_note(ptr noundef nonnull @.str.92, ptr noundef %10, ptr noundef nonnull %11) #5
  %12 = getelementptr inbounds nuw i8, ptr %7, i64 40
  %13 = load ptr, ptr %12, align 8, !tbaa !35
  %14 = getelementptr inbounds nuw i8, ptr %7, i64 48
  %15 = load i64, ptr %14, align 8, !tbaa !36
  %16 = tail call fastcc ptr @new_raw_private_key(ptr noundef %10, ptr noundef %13, i64 noundef %15, ptr noundef null, i64 noundef %6)
  %17 = tail call i32 @test_ptr(ptr noundef nonnull @.str.3, i32 noundef 440, ptr noundef nonnull @.str.100, ptr noundef %16) #5
  %.not = icmp eq i32 %17, 0
  br i1 %.not, label %32, label %18

18:                                               ; preds = %1
  br i1 %3, label %19, label %22

19:                                               ; preds = %18
  %20 = tail call i32 @EVP_PKEY_auth_encapsulate_init(ptr noundef %9, ptr noundef %16, ptr noundef nonnull @opparam) #5
  %21 = tail call i32 @test_int_eq(ptr noundef nonnull @.str.3, i32 noundef 445, ptr noundef nonnull @.str.101, ptr noundef nonnull @.str.97, i32 noundef %20, i32 noundef %5) #5
  %.not21 = icmp eq i32 %21, 0
  br i1 %.not21, label %32, label %25

22:                                               ; preds = %18
  %23 = tail call i32 @EVP_PKEY_auth_decapsulate_init(ptr noundef %9, ptr noundef %16, ptr noundef nonnull @opparam) #5
  %24 = tail call i32 @test_int_eq(ptr noundef nonnull @.str.3, i32 noundef 449, ptr noundef nonnull @.str.102, ptr noundef nonnull @.str.97, i32 noundef %23, i32 noundef %5) #5
  %.not20 = icmp eq i32 %24, 0
  br i1 %.not20, label %32, label %25

25:                                               ; preds = %22, %19
  br i1 %4, label %31, label %26

26:                                               ; preds = %25
  %27 = tail call i64 @ERR_get_error() #5
  %28 = and i64 %27, 2147483648
  %.not.i = icmp eq i64 %28, 0
  %29 = trunc i64 %27 to i32
  %.0.v.i = select i1 %.not.i, i32 8388607, i32 2147483647
  %.0.i = and i32 %.0.v.i, %29
  %30 = tail call i32 @test_int_eq(ptr noundef nonnull @.str.3, i32 noundef 454, ptr noundef nonnull @.str.98, ptr noundef nonnull @.str.99, i32 noundef %.0.i, i32 noundef 220) #5
  %.not22 = icmp eq i32 %30, 0
  br i1 %.not22, label %32, label %31

31:                                               ; preds = %26, %25
  br label %32

32:                                               ; preds = %26, %22, %19, %1, %31
  %.0 = phi i32 [ 1, %31 ], [ 0, %26 ], [ 0, %19 ], [ 0, %22 ], [ 0, %1 ]
  tail call void @EVP_PKEY_free(ptr noundef %16) #5
  ret i32 %.0
}